#include <math.h>
#include <stdio.h>
#include <stdlib.h>
#include <string.h>

int  main(){
int  sz[100][100]; 
int m,n,k;

scanf("%d",&k);
int i;
for(int  h=0;h<k;h++){
int sum=0;
scanf("%d%d",&m,&n);
for(i=0;i<m;i++){
			for(int j=0;j<n;j++)
				scanf("%d",&sz[i][j]);
}


for(int j=0;j<n;j++){
sum+=sz[0][j];
sum+=sz[m-1][j];
}

for(i=1;i<m-1;i++){
sum+=sz[i][0];
sum+=sz[i][n-1];
}
printf("%d\n",sum); 
}
return 0;
}